(lp0
VMMM
p1
aVABT
p2
aVABBV
p3
aVACN
p4
aVATVI
p5
aVAYI
p6
aVADBE
p7
aVAMD
p8
aVAAP
p9
aVAES
p10
aVAET
p11
aVAMG
p12
aVAFL
p13
aVA
p14
aVAPD
p15
aVAKAM
p16
aVALK
p17
aVALB
p18
aVARE
p19
aVALXN
p20
aVALGN
p21
aVALLE
p22
aVAGN
p23
aVADS
p24
aVLNT
p25
aVALL
p26
aVGOOGL
p27
aVGOOG
p28
aVMO
p29
aVAMZN
p30
aVAEE
p31
aVAAL
p32
aVAEP
p33
aVAXP
p34
aVAIG
p35
aVAMT
p36
aVAWK
p37
aVAMP
p38
aVABC
p39
aVAME
p40
aVAMGN
p41
aVAPH
p42
aVAPC
p43
aVADI
p44
aVANDV
p45
aVANSS
p46
aVANTM
p47
aVAON
p48
aVAOS
p49
aVAPA
p50
aVAIV
p51
aVAAPL
p52
aVAMAT
p53
aVAPTV
p54
aVADM
p55
aVARNC
p56
aVAJG
p57
aVAIZ
p58
aVT
p59
aVADSK
p60
aVADP
p61
aVAZO
p62
aVAVB
p63
aVAVY
p64
aVBHGE
p65
aVBLL
p66
aVBAC
p67
aVBK
p68
aVBAX
p69
aVBBT
p70
aVBDX
p71
aVBRK.B
p72
aVBBY
p73
aVBIIB
p74
aVBLK
p75
aVHRB
p76
aVBA
p77
aVBWA
p78
aVBXP
p79
aVBSX
p80
aVBHF
p81
aVBMY
p82
aVAVGO
p83
aVBF.B
p84
aVCHRW
p85
aVCA
p86
aVCOG
p87
aVCDNS
p88
aVCPB
p89
aVCOF
p90
aVCAH
p91
aVCBOE
p92
aVKMX
p93
aVCCL
p94
aVCAT
p95
aVCBG
p96
aVCBS
p97
aVCELG
p98
aVCNC
p99
aVCNP
p100
aVCTL
p101
aVCERN
p102
aVCF
p103
aVSCHW
p104
aVCHTR
p105
aVCHK
p106
aVCVX
p107
aVCMG
p108
aVCB
p109
aVCHD
p110
aVCI
p111
aVXEC
p112
aVCINF
p113
aVCTAS
p114
aVCSCO
p115
aVC
p116
aVCFG
p117
aVCTXS
p118
aVCLX
p119
aVCME
p120
aVCMS
p121
aVKO
p122
aVCTSH
p123
aVCL
p124
aVCMCSA
p125
aVCMA
p126
aVCAG
p127
aVCXO
p128
aVCOP
p129
aVED
p130
aVSTZ
p131
aVCOO
p132
aVGLW
p133
aVCOST
p134
aVCOTY
p135
aVCCI
p136
aVCSRA
p137
aVCSX
p138
aVCMI
p139
aVCVS
p140
aVDHI
p141
aVDHR
p142
aVDRI
p143
aVDVA
p144
aVDE
p145
aVDAL
p146
aVXRAY
p147
aVDVN
p148
aVDLR
p149
aVDFS
p150
aVDISCA
p151
aVDISCK
p152
aVDISH
p153
aVDG
p154
aVDLTR
p155
aVD
p156
aVDOV
p157
aVDWDP
p158
aVDPS
p159
aVDTE
p160
aVDRE
p161
aVDUK
p162
aVDXC
p163
aVETFC
p164
aVEMN
p165
aVETN
p166
aVEBAY
p167
aVECL
p168
aVEIX
p169
aVEW
p170
aVEA
p171
aVEMR
p172
aVETR
p173
aVEVHC
p174
aVEOG
p175
aVEQT
p176
aVEFX
p177
aVEQIX
p178
aVEQR
p179
aVESS
p180
aVEL
p181
aVES
p182
aVRE
p183
aVEXC
p184
aVEXPE
p185
aVEXPD
p186
aVESRX
p187
aVEXR
p188
aVXOM
p189
aVFFIV
p190
aVFB
p191
aVFAST
p192
aVFRT
p193
aVFDX
p194
aVFIS
p195
aVFITB
p196
aVFE
p197
aVFISV
p198
aVFLIR
p199
aVFLS
p200
aVFLR
p201
aVFMC
p202
aVFL
p203
aVF
p204
aVFTV
p205
aVFBHS
p206
aVBEN
p207
aVFCX
p208
aVGPS
p209
aVGRMN
p210
aVIT
p211
aVGD
p212
aVGE
p213
aVGGP
p214
aVGIS
p215
aVGM
p216
aVGPC
p217
aVGILD
p218
aVGPN
p219
aVGS
p220
aVGT
p221
aVGWW
p222
aVHAL
p223
aVHBI
p224
aVHOG
p225
aVHRS
p226
aVHIG
p227
aVHAS
p228
aVHCA
p229
aVHCP
p230
aVHP
p231
aVHSIC
p232
aVHSY
p233
aVHES
p234
aVHPE
p235
aVHLT
p236
aVHOLX
p237
aVHD
p238
aVHON
p239
aVHRL
p240
aVHST
p241
aVHPQ
p242
aVHUM
p243
aVHBAN
p244
aVHII
p245
aVIDXX
p246
aVINFO
p247
aVITW
p248
aVILMN
p249
aVIR
p250
aVINTC
p251
aVICE
p252
aVIBM
p253
aVINCY
p254
aVIP
p255
aVIPG
p256
aVIFF
p257
aVINTU
p258
aVISRG
p259
aVIVZ
p260
aVIQV
p261
aVIRM
p262
aVJEC
p263
aVJBHT
p264
aVSJM
p265
aVJNJ
p266
aVJCI
p267
aVJPM
p268
aVJNPR
p269
aVKSU
p270
aVK
p271
aVKEY
p272
aVKMB
p273
aVKIM
p274
aVKMI
p275
aVKLAC
p276
aVKSS
p277
aVKHC
p278
aVKR
p279
aVLB
p280
aVLLL
p281
aVLH
p282
aVLRCX
p283
aVLEG
p284
aVLEN
p285
aVLUK
p286
aVLLY
p287
aVLNC
p288
aVLKQ
p289
aVLMT
p290
aVL
p291
aVLOW
p292
aVLYB
p293
aVMTB
p294
aVMAC
p295
aVM
p296
aVMRO
p297
aVMPC
p298
aVMAR
p299
aVMMC
p300
aVMLM
p301
aVMAS
p302
aVMA
p303
aVMAT
p304
aVMKC
p305
aVMCD
p306
aVMCK
p307
aVMDT
p308
aVMRK
p309
aVMET
p310
aVMTD
p311
aVMGM
p312
aVKORS
p313
aVMCHP
p314
aVMU
p315
aVMSFT
p316
aVMAA
p317
aVMHK
p318
aVTAP
p319
aVMDLZ
p320
aVMON
p321
aVMNST
p322
aVMCO
p323
aVMS
p324
aVMOS
p325
aVMSI
p326
aVMYL
p327
aVNDAQ
p328
aVNOV
p329
aVNAVI
p330
aVNTAP
p331
aVNFLX
p332
aVNWL
p333
aVNFX
p334
aVNEM
p335
aVNWSA
p336
aVNWS
p337
aVNEE
p338
aVNLSN
p339
aVNKE
p340
aVNI
p341
aVNBL
p342
aVJWN
p343
aVNSC
p344
aVNTRS
p345
aVNOC
p346
aVNCLH
p347
aVNRG
p348
aVNUE
p349
aVNVDA
p350
aVORLY
p351
aVOXY
p352
aVOMC
p353
aVOKE
p354
aVORCL
p355
aVPCAR
p356
aVPKG
p357
aVPH
p358
aVPDCO
p359
aVPAYX
p360
aVPYPL
p361
aVPNR
p362
aVPBCT
p363
aVPEP
p364
aVPKI
p365
aVPRGO
p366
aVPFE
p367
aVPCG
p368
aVPM
p369
aVPSX
p370
aVPNW
p371
aVPXD
p372
aVPNC
p373
aVRL
p374
aVPPG
p375
aVPPL
p376
aVPX
p377
aVPCLN
p378
aVPFG
p379
aVPG
p380
aVPGR
p381
aVPLD
p382
aVPRU
p383
aVPEG
p384
aVPSA
p385
aVPHM
p386
aVPVH
p387
aVQRVO
p388
aVPWR
p389
aVQCOM
p390
aVDGX
p391
aVRRC
p392
aVRJF
p393
aVRTN
p394
aVO
p395
aVRHT
p396
aVREG
p397
aVREGN
p398
aVRF
p399
aVRSG
p400
aVRMD
p401
aVRHI
p402
aVROK
p403
aVCOL
p404
aVROP
p405
aVROST
p406
aVRCL
p407
aVCRM
p408
aVSBAC
p409
aVSCG
p410
aVSLB
p411
aVSNI
p412
aVSTX
p413
aVSEE
p414
aVSRE
p415
aVSHW
p416
aVSIG
p417
aVSPG
p418
aVSWKS
p419
aVSLG
p420
aVSNA
p421
aVSO
p422
aVLUV
p423
aVSPGI
p424
aVSWK
p425
aVSBUX
p426
aVSTT
p427
aVSRCL
p428
aVSYK
p429
aVSTI
p430
aVSYMC
p431
aVSYF
p432
aVSNPS
p433
aVSYY
p434
aVTROW
p435
aVTPR
p436
aVTGT
p437
aVTEL
p438
aVFTI
p439
aVTXN
p440
aVTXT
p441
aVTMO
p442
aVTIF
p443
aVTWX
p444
aVTJX
p445
aVTMK
p446
aVTSS
p447
aVTSCO
p448
aVTDG
p449
aVTRV
p450
aVTRIP
p451
aVFOXA
p452
aVFOX
p453
aVTSN
p454
aVUDR
p455
aVULTA
p456
aVUSB
p457
aVUA
p458
aVUAA
p459
aVUNP
p460
aVUAL
p461
aVUNH
p462
aVUPS
p463
aVURI
p464
aVUTX
p465
aVUHS
p466
aVUNM
p467
aVVFC
p468
aVVLO
p469
aVVAR
p470
aVVTR
p471
aVVRSN
p472
aVVRSK
p473
aVVZ
p474
aVVRTX
p475
aVVIAB
p476
aVV
p477
aVVNO
p478
aVVMC
p479
aVWMT
p480
aVWBA
p481
aVDIS
p482
aVWM
p483
aVWAT
p484
aVWEC
p485
aVWFC
p486
aVHCN
p487
aVWDC
p488
aVWU
p489
aVWRK
p490
aVWY
p491
aVWHR
p492
aVWMB
p493
aVWLTW
p494
aVWYN
p495
aVWYNN
p496
aVXEL
p497
aVXRX
p498
aVXLNX
p499
aVXL
p500
aVXYL
p501
aVYUM
p502
aVZBH
p503
aVZION
p504
aVZTS
p505
a.