(lp0
VMMM
p1
aVABT
p2
aVABBV
p3
aVABMD
p4
aVACN
p5
aVATVI
p6
aVAYI
p7
aVADBE
p8
aVAMD
p9
aVAAP
p10
aVAES
p11
aVAET
p12
aVAMG
p13
aVAFL
p14
aVA
p15
aVAPD
p16
aVAKAM
p17
aVALK
p18
aVALB
p19
aVARE
p20
aVALXN
p21
aVALGN
p22
aVALLE
p23
aVAGN
p24
aVADS
p25
aVLNT
p26
aVALL
p27
aVGOOGL
p28
aVGOOG
p29
aVMO
p30
aVAMZN
p31
aVAEE
p32
aVAAL
p33
aVAEP
p34
aVAXP
p35
aVAIG
p36
aVAMT
p37
aVAWK
p38
aVAMP
p39
aVABC
p40
aVAME
p41
aVAMGN
p42
aVAPH
p43
aVAPC
p44
aVADI
p45
aVANDV
p46
aVANSS
p47
aVANTM
p48
aVAON
p49
aVAOS
p50
aVAPA
p51
aVAIV
p52
aVAAPL
p53
aVAMAT
p54
aVAPTV
p55
aVADM
p56
aVARNC
p57
aVAJG
p58
aVAIZ
p59
aVT
p60
aVADSK
p61
aVADP
p62
aVAZO
p63
aVAVB
p64
aVAVY
p65
aVBHGE
p66
aVBLL
p67
aVBAC
p68
aVBK
p69
aVBAX
p70
aVBBT
p71
aVBDX
p72
aVBRK.B
p73
aVBBY
p74
aVBIIB
p75
aVBLK
p76
aVHRB
p77
aVBA
p78
aVBKNG
p79
aVBWA
p80
aVBXP
p81
aVBSX
p82
aVBHF
p83
aVBMY
p84
aVAVGO
p85
aVBF.B
p86
aVCHRW
p87
aVCA
p88
aVCOG
p89
aVCDNS
p90
aVCPB
p91
aVCOF
p92
aVCAH
p93
aVKMX
p94
aVCCL
p95
aVCAT
p96
aVCBOE
p97
aVCBRE
p98
aVCBS
p99
aVCELG
p100
aVCNC
p101
aVCNP
p102
aVCTL
p103
aVCERN
p104
aVCF
p105
aVSCHW
p106
aVCHTR
p107
aVCVX
p108
aVCMG
p109
aVCB
p110
aVCHD
p111
aVCI
p112
aVXEC
p113
aVCINF
p114
aVCTAS
p115
aVCSCO
p116
aVC
p117
aVCFG
p118
aVCTXS
p119
aVCLX
p120
aVCME
p121
aVCMS
p122
aVKO
p123
aVCTSH
p124
aVCL
p125
aVCMCSA
p126
aVCMA
p127
aVCAG
p128
aVCXO
p129
aVCOP
p130
aVED
p131
aVSTZ
p132
aVCOO
p133
aVGLW
p134
aVCOST
p135
aVCOTY
p136
aVCCI
p137
aVCSX
p138
aVCMI
p139
aVCVS
p140
aVDHI
p141
aVDHR
p142
aVDRI
p143
aVDVA
p144
aVDE
p145
aVDAL
p146
aVXRAY
p147
aVDVN
p148
aVDLR
p149
aVDFS
p150
aVDISCA
p151
aVDISCK
p152
aVDISH
p153
aVDG
p154
aVDLTR
p155
aVD
p156
aVDOV
p157
aVDWDP
p158
aVDPS
p159
aVDTE
p160
aVDRE
p161
aVDUK
p162
aVDXC
p163
aVETFC
p164
aVEMN
p165
aVETN
p166
aVEBAY
p167
aVECL
p168
aVEIX
p169
aVEW
p170
aVEA
p171
aVEMR
p172
aVETR
p173
aVEVHC
p174
aVEOG
p175
aVEQT
p176
aVEFX
p177
aVEQIX
p178
aVEQR
p179
aVESS
p180
aVEL
p181
aVEVRG
p182
aVES
p183
aVRE
p184
aVEXC
p185
aVEXPE
p186
aVEXPD
p187
aVESRX
p188
aVEXR
p189
aVXOM
p190
aVFFIV
p191
aVFB
p192
aVFAST
p193
aVFRT
p194
aVFDX
p195
aVFIS
p196
aVFITB
p197
aVFE
p198
aVFISV
p199
aVFLIR
p200
aVFLS
p201
aVFLR
p202
aVFMC
p203
aVFL
p204
aVF
p205
aVFTV
p206
aVFBHS
p207
aVBEN
p208
aVFCX
p209
aVGPS
p210
aVGRMN
p211
aVIT
p212
aVGD
p213
aVGE
p214
aVGGP
p215
aVGIS
p216
aVGM
p217
aVGPC
p218
aVGILD
p219
aVGPN
p220
aVGS
p221
aVGT
p222
aVGWW
p223
aVHAL
p224
aVHBI
p225
aVHOG
p226
aVHRS
p227
aVHIG
p228
aVHAS
p229
aVHCA
p230
aVHCP
p231
aVHP
p232
aVHSIC
p233
aVHSY
p234
aVHES
p235
aVHPE
p236
aVHLT
p237
aVHOLX
p238
aVHD
p239
aVHON
p240
aVHRL
p241
aVHST
p242
aVHPQ
p243
aVHUM
p244
aVHBAN
p245
aVHII
p246
aVIDXX
p247
aVINFO
p248
aVITW
p249
aVILMN
p250
aVIR
p251
aVINTC
p252
aVICE
p253
aVIBM
p254
aVINCY
p255
aVIP
p256
aVIPG
p257
aVIFF
p258
aVINTU
p259
aVISRG
p260
aVIVZ
p261
aVIPGP
p262
aVIQV
p263
aVIRM
p264
aVJEC
p265
aVJBHT
p266
aVJEF
p267
aVSJM
p268
aVJNJ
p269
aVJCI
p270
aVJPM
p271
aVJNPR
p272
aVKSU
p273
aVK
p274
aVKEY
p275
aVKMB
p276
aVKIM
p277
aVKMI
p278
aVKLAC
p279
aVKSS
p280
aVKHC
p281
aVKR
p282
aVLB
p283
aVLLL
p284
aVLH
p285
aVLRCX
p286
aVLEG
p287
aVLEN
p288
aVLLY
p289
aVLNC
p290
aVLKQ
p291
aVLMT
p292
aVL
p293
aVLOW
p294
aVLYB
p295
aVMTB
p296
aVMAC
p297
aVM
p298
aVMRO
p299
aVMPC
p300
aVMAR
p301
aVMMC
p302
aVMLM
p303
aVMAS
p304
aVMA
p305
aVMAT
p306
aVMKC
p307
aVMCD
p308
aVMCK
p309
aVMDT
p310
aVMRK
p311
aVMET
p312
aVMTD
p313
aVMGM
p314
aVKORS
p315
aVMCHP
p316
aVMU
p317
aVMSFT
p318
aVMAA
p319
aVMHK
p320
aVTAP
p321
aVMDLZ
p322
aVMON
p323
aVMNST
p324
aVMCO
p325
aVMS
p326
aVMOS
p327
aVMSI
p328
aVMSCI
p329
aVMYL
p330
aVNDAQ
p331
aVNOV
p332
aVNKTR
p333
aVNTAP
p334
aVNFLX
p335
aVNWL
p336
aVNFX
p337
aVNEM
p338
aVNWSA
p339
aVNWS
p340
aVNEE
p341
aVNLSN
p342
aVNKE
p343
aVNI
p344
aVNBL
p345
aVJWN
p346
aVNSC
p347
aVNTRS
p348
aVNOC
p349
aVNCLH
p350
aVNRG
p351
aVNUE
p352
aVNVDA
p353
aVORLY
p354
aVOXY
p355
aVOMC
p356
aVOKE
p357
aVORCL
p358
aVPCAR
p359
aVPKG
p360
aVPH
p361
aVPAYX
p362
aVPYPL
p363
aVPNR
p364
aVPBCT
p365
aVPEP
p366
aVPKI
p367
aVPRGO
p368
aVPFE
p369
aVPCG
p370
aVPM
p371
aVPSX
p372
aVPNW
p373
aVPXD
p374
aVPNC
p375
aVRL
p376
aVPPG
p377
aVPPL
p378
aVPX
p379
aVPFG
p380
aVPG
p381
aVPGR
p382
aVPLD
p383
aVPRU
p384
aVPEG
p385
aVPSA
p386
aVPHM
p387
aVPVH
p388
aVQRVO
p389
aVPWR
p390
aVQCOM
p391
aVDGX
p392
aVRRC
p393
aVRJF
p394
aVRTN
p395
aVO
p396
aVRHT
p397
aVREG
p398
aVREGN
p399
aVRF
p400
aVRSG
p401
aVRMD
p402
aVRHI
p403
aVROK
p404
aVCOL
p405
aVROP
p406
aVROST
p407
aVRCL
p408
aVCRM
p409
aVSBAC
p410
aVSCG
p411
aVSLB
p412
aVSTX
p413
aVSEE
p414
aVSRE
p415
aVSHW
p416
aVSPG
p417
aVSWKS
p418
aVSLG
p419
aVSNA
p420
aVSO
p421
aVLUV
p422
aVSPGI
p423
aVSWK
p424
aVSBUX
p425
aVSTT
p426
aVSRCL
p427
aVSYK
p428
aVSTI
p429
aVSIVB
p430
aVSYMC
p431
aVSYF
p432
aVSNPS
p433
aVSYY
p434
aVTROW
p435
aVTTWO
p436
aVTPR
p437
aVTGT
p438
aVTEL
p439
aVFTI
p440
aVTXN
p441
aVTXT
p442
aVTMO
p443
aVTIF
p444
aVTWX
p445
aVTJX
p446
aVTMK
p447
aVTSS
p448
aVTSCO
p449
aVTDG
p450
aVTRV
p451
aVTRIP
p452
aVFOXA
p453
aVFOX
p454
aVTSN
p455
aVUDR
p456
aVULTA
p457
aVUSB
p458
aVUAA
p459
aVUA
p460
aVUNP
p461
aVUAL
p462
aVUNH
p463
aVUPS
p464
aVURI
p465
aVUTX
p466
aVUHS
p467
aVUNM
p468
aVVFC
p469
aVVLO
p470
aVVAR
p471
aVVTR
p472
aVVRSN
p473
aVVRSK
p474
aVVZ
p475
aVVRTX
p476
aVVIAB
p477
aVV
p478
aVVNO
p479
aVVMC
p480
aVWMT
p481
aVWBA
p482
aVDIS
p483
aVWM
p484
aVWAT
p485
aVWEC
p486
aVWFC
p487
aVWELL
p488
aVWDC
p489
aVWU
p490
aVWRK
p491
aVWY
p492
aVWHR
p493
aVWMB
p494
aVWLTW
p495
aVWYNN
p496
aVXEL
p497
aVXRX
p498
aVXLNX
p499
aVXL
p500
aVXYL
p501
aVYUM
p502
aVZBH
p503
aVZION
p504
aVZTS
p505
a.